target datalayout = "e-m:e-p270:32:32-p271:32:32-p272:64:64-i64:64-i128:128-f80:128-n8:16:32:64-S128"
target triple = "x86_64-pc-linux-gnu"

%struct.translation_ctx_st = type { ptr, i32, i32, ptr, i32, i32, ptr, i64, ptr, ptr, [50 x i8], ptr, ptr, i64 }
%struct.kdf_type_map_st = type { i32, ptr }

; Function Attrs: nounwind uwtable
define internal i32 @fix_kdf_type(i32 noundef %0, ptr noundef %1, ptr noundef %2, ptr noundef %3) #0 {
  %5 = alloca i32, align 4
  %6 = alloca i32, align 4
  %7 = alloca ptr, align 8
  %8 = alloca ptr, align 8
  %9 = alloca ptr, align 8
  %10 = alloca i32, align 4
  %11 = alloca i32, align 4
  store i32 %0, ptr %6, align 4, !tbaa !8
  store ptr %1, ptr %7, align 8, !tbaa !11
  store ptr %2, ptr %8, align 8, !tbaa !43
  store ptr %3, ptr %9, align 8, !tbaa !82
  call void @llvm.lifetime.start.p0(i64 4, ptr %10) #9
  store i32 0, ptr %10, align 4, !tbaa !8
  %12 = load i32, ptr %6, align 4, !tbaa !8
  %13 = load ptr, ptr %7, align 8, !tbaa !11
  %14 = load ptr, ptr %8, align 8, !tbaa !43
  %15 = call i32 @default_check(i32 noundef %12, ptr noundef %13, ptr noundef %14)
  store i32 %15, ptr %10, align 4, !tbaa !8
  %16 = icmp sle i32 %15, 0
  br i1 %16, label %17, label %19

17:                                               ; preds = %4
  %18 = load i32, ptr %10, align 4, !tbaa !8
  store i32 %18, ptr %5, align 4
  store i32 1, ptr %11, align 4
  br label %184

19:                                               ; preds = %4
  %20 = load i32, ptr %6, align 4, !tbaa !8
  %21 = icmp eq i32 %20, 1
  br i1 %21, label %22, label %55

22:                                               ; preds = %19
  %23 = load ptr, ptr %8, align 8, !tbaa !43
  %24 = getelementptr inbounds nuw %struct.translation_ctx_st, ptr %23, i32 0, i32 1
  %25 = load i32, ptr %24, align 8, !tbaa !35
  %26 = icmp eq i32 %25, 0
  %27 = zext i1 %26 to i32
  %28 = icmp ne i32 %27, 0
  %29 = xor i1 %28, true
  %30 = xor i1 %29, true
  %31 = zext i1 %30 to i32
  %32 = sext i32 %31 to i64
  %33 = call i64 @llvm.expect.i64(i64 %32, i64 1)
  %34 = icmp ne i64 %33, 0
  br i1 %34, label %36, label %35

35:                                               ; preds = %22
  store i32 0, ptr %5, align 4
  store i32 1, ptr %11, align 4
  br label %184

36:                                               ; preds = %22
  %37 = load ptr, ptr %8, align 8, !tbaa !43
  %38 = getelementptr inbounds nuw %struct.translation_ctx_st, ptr %37, i32 0, i32 5
  %39 = load i32, ptr %38, align 4, !tbaa !39
  %40 = icmp eq i32 %39, -2
  br i1 %40, label %41, label %51

41:                                               ; preds = %36
  %42 = load ptr, ptr %8, align 8, !tbaa !43
  %43 = getelementptr inbounds nuw %struct.translation_ctx_st, ptr %42, i32 0, i32 10
  %44 = getelementptr inbounds [50 x i8], ptr %43, i64 0, i64 0
  %45 = load ptr, ptr %8, align 8, !tbaa !43
  %46 = getelementptr inbounds nuw %struct.translation_ctx_st, ptr %45, i32 0, i32 6
  store ptr %44, ptr %46, align 8, !tbaa !40
  %47 = load ptr, ptr %8, align 8, !tbaa !43
  %48 = getelementptr inbounds nuw %struct.translation_ctx_st, ptr %47, i32 0, i32 5
  store i32 50, ptr %48, align 4, !tbaa !39
  %49 = load ptr, ptr %8, align 8, !tbaa !43
  %50 = getelementptr inbounds nuw %struct.translation_ctx_st, ptr %49, i32 0, i32 1
  store i32 1, ptr %50, align 8, !tbaa !35
  br label %54

51:                                               ; preds = %36
  %52 = load ptr, ptr %8, align 8, !tbaa !43
  %53 = getelementptr inbounds nuw %struct.translation_ctx_st, ptr %52, i32 0, i32 1
  store i32 2, ptr %53, align 8, !tbaa !35
  br label %54

54:                                               ; preds = %51, %41
  br label %55

55:                                               ; preds = %54, %19
  %56 = load i32, ptr %6, align 4, !tbaa !8
  %57 = load ptr, ptr %7, align 8, !tbaa !11
  %58 = load ptr, ptr %8, align 8, !tbaa !43
  %59 = call i32 @default_check(i32 noundef %56, ptr noundef %57, ptr noundef %58)
  store i32 %59, ptr %10, align 4, !tbaa !8
  %60 = icmp sle i32 %59, 0
  br i1 %60, label %61, label %63

61:                                               ; preds = %55
  %62 = load i32, ptr %10, align 4, !tbaa !8
  store i32 %62, ptr %5, align 4
  store i32 1, ptr %11, align 4
  br label %184

63:                                               ; preds = %55
  %64 = load i32, ptr %6, align 4, !tbaa !8
  %65 = icmp eq i32 %64, 1
  br i1 %65, label %66, label %71

66:                                               ; preds = %63
  %67 = load ptr, ptr %8, align 8, !tbaa !43
  %68 = getelementptr inbounds nuw %struct.translation_ctx_st, ptr %67, i32 0, i32 1
  %69 = load i32, ptr %68, align 8, !tbaa !35
  %70 = icmp eq i32 %69, 2
  br i1 %70, label %79, label %71

71:                                               ; preds = %66, %63
  %72 = load i32, ptr %6, align 4, !tbaa !8
  %73 = icmp eq i32 %72, 8
  br i1 %73, label %74, label %115

74:                                               ; preds = %71
  %75 = load ptr, ptr %8, align 8, !tbaa !43
  %76 = getelementptr inbounds nuw %struct.translation_ctx_st, ptr %75, i32 0, i32 1
  %77 = load i32, ptr %76, align 8, !tbaa !35
  %78 = icmp eq i32 %77, 1
  br i1 %78, label %79, label %115

79:                                               ; preds = %74, %66
  store i32 -2, ptr %10, align 4, !tbaa !8
  br label %80

80:                                               ; preds = %100, %79
  %81 = load ptr, ptr %9, align 8, !tbaa !82
  %82 = getelementptr inbounds nuw %struct.kdf_type_map_st, ptr %81, i32 0, i32 1
  %83 = load ptr, ptr %82, align 8, !tbaa !84
  %84 = icmp ne ptr %83, null
  br i1 %84, label %85, label %103

85:                                               ; preds = %80
  %86 = load ptr, ptr %8, align 8, !tbaa !43
  %87 = getelementptr inbounds nuw %struct.translation_ctx_st, ptr %86, i32 0, i32 5
  %88 = load i32, ptr %87, align 4, !tbaa !39
  %89 = load ptr, ptr %9, align 8, !tbaa !82
  %90 = getelementptr inbounds nuw %struct.kdf_type_map_st, ptr %89, i32 0, i32 0
  %91 = load i32, ptr %90, align 8, !tbaa !86
  %92 = icmp eq i32 %88, %91
  br i1 %92, label %93, label %99

93:                                               ; preds = %85
  %94 = load ptr, ptr %9, align 8, !tbaa !82
  %95 = getelementptr inbounds nuw %struct.kdf_type_map_st, ptr %94, i32 0, i32 1
  %96 = load ptr, ptr %95, align 8, !tbaa !84
  %97 = load ptr, ptr %8, align 8, !tbaa !43
  %98 = getelementptr inbounds nuw %struct.translation_ctx_st, ptr %97, i32 0, i32 6
  store ptr %96, ptr %98, align 8, !tbaa !40
  store i32 1, ptr %10, align 4, !tbaa !8
  br label %103

99:                                               ; preds = %85
  br label %100

100:                                              ; preds = %99
  %101 = load ptr, ptr %9, align 8, !tbaa !82
  %102 = getelementptr inbounds nuw %struct.kdf_type_map_st, ptr %101, i32 1
  store ptr %102, ptr %9, align 8, !tbaa !82
  br label %80, !llvm.loop !87

103:                                              ; preds = %93, %80
  %104 = load i32, ptr %10, align 4, !tbaa !8
  %105 = icmp sle i32 %104, 0
  br i1 %105, label %106, label %107

106:                                              ; preds = %103
  br label %182

107:                                              ; preds = %103
  %108 = load ptr, ptr %8, align 8, !tbaa !43
  %109 = getelementptr inbounds nuw %struct.translation_ctx_st, ptr %108, i32 0, i32 6
  %110 = load ptr, ptr %109, align 8, !tbaa !40
  %111 = call i64 @strlen(ptr noundef %110) #10
  %112 = trunc i64 %111 to i32
  %113 = load ptr, ptr %8, align 8, !tbaa !43
  %114 = getelementptr inbounds nuw %struct.translation_ctx_st, ptr %113, i32 0, i32 5
  store i32 %112, ptr %114, align 4, !tbaa !39
  br label %115

115:                                              ; preds = %107, %74, %71
  %116 = load i32, ptr %6, align 4, !tbaa !8
  %117 = load ptr, ptr %7, align 8, !tbaa !11
  %118 = load ptr, ptr %8, align 8, !tbaa !43
  %119 = call i32 @default_fixup_args(i32 noundef %116, ptr noundef %117, ptr noundef %118)
  store i32 %119, ptr %10, align 4, !tbaa !8
  %120 = icmp sle i32 %119, 0
  br i1 %120, label %121, label %123

121:                                              ; preds = %115
  %122 = load i32, ptr %10, align 4, !tbaa !8
  store i32 %122, ptr %5, align 4
  store i32 1, ptr %11, align 4
  br label %184

123:                                              ; preds = %115
  %124 = load i32, ptr %6, align 4, !tbaa !8
  %125 = icmp eq i32 %124, 2
  br i1 %125, label %126, label %131

126:                                              ; preds = %123
  %127 = load ptr, ptr %8, align 8, !tbaa !43
  %128 = getelementptr inbounds nuw %struct.translation_ctx_st, ptr %127, i32 0, i32 1
  %129 = load i32, ptr %128, align 8, !tbaa !35
  %130 = icmp eq i32 %129, 1
  br i1 %130, label %139, label %131

131:                                              ; preds = %126, %123
  %132 = load i32, ptr %6, align 4, !tbaa !8
  %133 = icmp eq i32 %132, 7
  br i1 %133, label %134, label %169

134:                                              ; preds = %131
  %135 = load ptr, ptr %8, align 8, !tbaa !43
  %136 = getelementptr inbounds nuw %struct.translation_ctx_st, ptr %135, i32 0, i32 1
  %137 = load i32, ptr %136, align 8, !tbaa !35
  %138 = icmp eq i32 %137, 2
  br i1 %138, label %139, label %169

139:                                              ; preds = %134, %126
  store i32 -1, ptr %10, align 4, !tbaa !8
  %140 = load ptr, ptr %8, align 8, !tbaa !43
  %141 = getelementptr inbounds nuw %struct.translation_ctx_st, ptr %140, i32 0, i32 5
  store i32 -1, ptr %141, align 4, !tbaa !39
  br label %142

142:                                              ; preds = %163, %139
  %143 = load ptr, ptr %9, align 8, !tbaa !82
  %144 = getelementptr inbounds nuw %struct.kdf_type_map_st, ptr %143, i32 0, i32 1
  %145 = load ptr, ptr %144, align 8, !tbaa !84
  %146 = icmp ne ptr %145, null
  br i1 %146, label %147, label %166

147:                                              ; preds = %142
  %148 = load ptr, ptr %8, align 8, !tbaa !43
  %149 = getelementptr inbounds nuw %struct.translation_ctx_st, ptr %148, i32 0, i32 6
  %150 = load ptr, ptr %149, align 8, !tbaa !40
  %151 = load ptr, ptr %9, align 8, !tbaa !82
  %152 = getelementptr inbounds nuw %struct.kdf_type_map_st, ptr %151, i32 0, i32 1
  %153 = load ptr, ptr %152, align 8, !tbaa !84
  %154 = call i32 @OPENSSL_strcasecmp(ptr noundef %150, ptr noundef %153)
  %155 = icmp eq i32 %154, 0
  br i1 %155, label %156, label %162

156:                                              ; preds = %147
  %157 = load ptr, ptr %9, align 8, !tbaa !82
  %158 = getelementptr inbounds nuw %struct.kdf_type_map_st, ptr %157, i32 0, i32 0
  %159 = load i32, ptr %158, align 8, !tbaa !86
  %160 = load ptr, ptr %8, align 8, !tbaa !43
  %161 = getelementptr inbounds nuw %struct.translation_ctx_st, ptr %160, i32 0, i32 5
  store i32 %159, ptr %161, align 4, !tbaa !39
  store i32 1, ptr %10, align 4, !tbaa !8
  br label %166

162:                                              ; preds = %147
  br label %163

163:                                              ; preds = %162
  %164 = load ptr, ptr %9, align 8, !tbaa !82
  %165 = getelementptr inbounds nuw %struct.kdf_type_map_st, ptr %164, i32 1
  store ptr %165, ptr %9, align 8, !tbaa !82
  br label %142, !llvm.loop !88

166:                                              ; preds = %156, %142
  %167 = load ptr, ptr %8, align 8, !tbaa !43
  %168 = getelementptr inbounds nuw %struct.translation_ctx_st, ptr %167, i32 0, i32 6
  store ptr null, ptr %168, align 8, !tbaa !40
  br label %181

169:                                              ; preds = %134, %131
  %170 = load i32, ptr %6, align 4, !tbaa !8
  %171 = icmp eq i32 %170, 7
  br i1 %171, label %172, label %180

172:                                              ; preds = %169
  %173 = load ptr, ptr %8, align 8, !tbaa !43
  %174 = getelementptr inbounds nuw %struct.translation_ctx_st, ptr %173, i32 0, i32 1
  %175 = load i32, ptr %174, align 8, !tbaa !35
  %176 = icmp eq i32 %175, 1
  br i1 %176, label %177, label %180

177:                                              ; preds = %172
  %178 = load ptr, ptr %8, align 8, !tbaa !43
  %179 = getelementptr inbounds nuw %struct.translation_ctx_st, ptr %178, i32 0, i32 5
  store i32 -2, ptr %179, align 4, !tbaa !39
  br label %180

180:                                              ; preds = %177, %172, %169
  br label %181

181:                                              ; preds = %180, %166
  br label %182

182:                                              ; preds = %181, %106
  %183 = load i32, ptr %10, align 4, !tbaa !8
  store i32 %183, ptr %5, align 4
  store i32 1, ptr %11, align 4
  br label %184

184:                                              ; preds = %182, %121, %61, %35, %17
  call void @llvm.lifetime.end.p0(i64 4, ptr %10) #9
  %185 = load i32, ptr %5, align 4
  ret i32 %185
}