; Function Attrs: nounwind uwtable
define internal fastcc i32 @fix_kdf_type(i32 noundef %0, ptr noundef captures(address_is_null) %1, ptr noundef %2, ptr noundef readonly captures(none) %3) unnamed_addr #0 {
  %5 = tail call fastcc i32 @default_check(i32 noundef %0, ptr noundef %1)
  %6 = icmp slt i32 %5, 1
  br i1 %6, label %.critedge, label %7

7:                                                ; preds = %4
  %8 = icmp eq i32 %0, 1
  br i1 %8, label %9, label %.thread

9:                                                ; preds = %7
  %10 = getelementptr inbounds nuw i8, ptr %2, i64 8
  %11 = load i32, ptr %10, align 8, !tbaa !29
  %12 = icmp eq i32 %11, 0
  br i1 %12, label %13, label %.critedge, !prof !62

13:                                               ; preds = %9
  %14 = getelementptr inbounds nuw i8, ptr %2, i64 28
  %15 = load i32, ptr %14, align 4, !tbaa !34
  %16 = icmp eq i32 %15, -2
  br i1 %16, label %17, label %20

17:                                               ; preds = %13
  %18 = getelementptr inbounds nuw i8, ptr %2, i64 64
  %19 = getelementptr inbounds nuw i8, ptr %2, i64 32
  store ptr %18, ptr %19, align 8, !tbaa !35
  store i32 50, ptr %14, align 4, !tbaa !34
  br label %20

20:                                               ; preds = %13, %17
  %storemerge = phi i32 [ 1, %17 ], [ 2, %13 ]
  store i32 %storemerge, ptr %10, align 8, !tbaa !29
  %21 = tail call fastcc i32 @default_check(i32 noundef 1, ptr noundef %1)
  %22 = icmp slt i32 %21, 1
  br i1 %22, label %.critedge, label %25

.thread:                                          ; preds = %7
  %23 = tail call fastcc i32 @default_check(i32 noundef %0, ptr noundef %1)
  %24 = icmp slt i32 %23, 1
  br i1 %24, label %.critedge, label %.thread60

25:                                               ; preds = %20
  %26 = load i32, ptr %10, align 8, !tbaa !29
  %27 = icmp eq i32 %26, 2
  br i1 %27, label %33, label %.thread61

.thread60:                                        ; preds = %.thread
  %28 = icmp eq i32 %0, 8
  br i1 %28, label %29, label %.thread61

29:                                               ; preds = %.thread60
  %30 = getelementptr inbounds nuw i8, ptr %2, i64 8
  %31 = load i32, ptr %30, align 8, !tbaa !29
  %32 = icmp eq i32 %31, 1
  br i1 %32, label %33, label %.thread61

33:                                               ; preds = %29, %25
  %34 = getelementptr inbounds nuw i8, ptr %3, i64 8
  %35 = load ptr, ptr %34, align 8, !tbaa !77
  %.not68 = icmp eq ptr %35, null
  br i1 %.not68, label %.critedge, label %.lr.ph

.lr.ph:                                           ; preds = %33
  %36 = getelementptr inbounds nuw i8, ptr %2, i64 28
  %37 = load i32, ptr %36, align 4, !tbaa !34
  %38 = load i32, ptr %3, align 8, !tbaa !79
  %39 = icmp eq i32 %37, %38
  br i1 %39, label %._crit_edge, label %.lr.ph83

40:                                               ; preds = %.lr.ph83
  %41 = getelementptr inbounds nuw i8, ptr %.1506982, i64 16
  %42 = load i32, ptr %41, align 8, !tbaa !79
  %43 = icmp eq i32 %37, %42
  br i1 %43, label %._crit_edge, label %.lr.ph83, !llvm.loop !80

.lr.ph83:                                         ; preds = %.lr.ph, %40
  %.1506982 = phi ptr [ %41, %40 ], [ %3, %.lr.ph ]
  %44 = getelementptr inbounds nuw i8, ptr %.1506982, i64 24
  %45 = load ptr, ptr %44, align 8, !tbaa !77
  %.not = icmp eq ptr %45, null
  br i1 %.not, label %.critedge, label %40, !llvm.loop !80

._crit_edge:                                      ; preds = %40, %.lr.ph
  %.lcssa = phi ptr [ %35, %.lr.ph ], [ %45, %40 ]
  %.15069.lcssa = phi ptr [ %3, %.lr.ph ], [ %41, %40 ]
  %46 = getelementptr inbounds nuw i8, ptr %2, i64 32
  store ptr %.lcssa, ptr %46, align 8, !tbaa !35
  %47 = tail call i64 @strlen(ptr noundef nonnull dereferenceable(1) %.lcssa) #9
  %48 = trunc i64 %47 to i32
  store i32 %48, ptr %36, align 4, !tbaa !34
  br label %.thread61

.thread61:                                        ; preds = %25, %._crit_edge, %29, %.thread60
  %.049 = phi ptr [ %.15069.lcssa, %._crit_edge ], [ %3, %29 ], [ %3, %.thread60 ], [ %3, %25 ]
  %49 = tail call i32 @default_fixup_args(i32 noundef %0, ptr noundef %1, ptr noundef %2)
  %50 = icmp slt i32 %49, 1
  br i1 %50, label %.critedge, label %51

51:                                               ; preds = %.thread61
  switch i32 %0, label %.critedge [
    i32 2, label %52
    i32 7, label %56
  ]

52:                                               ; preds = %51
  %53 = getelementptr inbounds nuw i8, ptr %2, i64 8
  %54 = load i32, ptr %53, align 8, !tbaa !29
  %55 = icmp eq i32 %54, 1
  br i1 %55, label %59, label %.critedge

56:                                               ; preds = %51
  %57 = getelementptr inbounds nuw i8, ptr %2, i64 8
  %58 = load i32, ptr %57, align 8, !tbaa !29
  switch i32 %58, label %.critedge [
    i32 2, label %59
    i32 1, label %76
  ]

59:                                               ; preds = %56, %52
  %60 = getelementptr inbounds nuw i8, ptr %2, i64 28
  store i32 -1, ptr %60, align 4, !tbaa !34
  %61 = getelementptr inbounds nuw i8, ptr %.049, i64 8
  %62 = load ptr, ptr %61, align 8, !tbaa !77
  %.not5970 = icmp eq ptr %62, null
  br i1 %.not5970, label %.loopexit, label %.lr.ph72

.lr.ph72:                                         ; preds = %59
  %63 = getelementptr inbounds nuw i8, ptr %2, i64 32
  br label %64

64:                                               ; preds = %.lr.ph72, %71
  %65 = phi ptr [ %62, %.lr.ph72 ], [ %74, %71 ]
  %.25171 = phi ptr [ %.049, %.lr.ph72 ], [ %72, %71 ]
  %66 = load ptr, ptr %63, align 8, !tbaa !35
  %67 = tail call i32 @OPENSSL_strcasecmp(ptr noundef %66, ptr noundef nonnull %65) #8
  %68 = icmp eq i32 %67, 0
  br i1 %68, label %69, label %71

69:                                               ; preds = %64
  %70 = load i32, ptr %.25171, align 8, !tbaa !79
  store i32 %70, ptr %60, align 4, !tbaa !34
  br label %.loopexit

71:                                               ; preds = %64
  %72 = getelementptr inbounds nuw i8, ptr %.25171, i64 16
  %73 = getelementptr inbounds nuw i8, ptr %.25171, i64 24
  %74 = load ptr, ptr %73, align 8, !tbaa !77
  %.not59 = icmp eq ptr %74, null
  br i1 %.not59, label %.loopexit, label %64, !llvm.loop !81

.loopexit:                                        ; preds = %71, %59, %69
  %.2 = phi i32 [ 1, %69 ], [ -1, %59 ], [ -1, %71 ]
  %75 = getelementptr inbounds nuw i8, ptr %2, i64 32
  store ptr null, ptr %75, align 8, !tbaa !35
  br label %.critedge

76:                                               ; preds = %56
  %77 = getelementptr inbounds nuw i8, ptr %2, i64 28
  store i32 -2, ptr %77, align 4, !tbaa !34
  br label %.critedge

.critedge:                                        ; preds = %.lr.ph83, %33, %56, %51, %52, %.thread, %76, %.loopexit, %.thread61, %20, %9, %4
  %.052 = phi i32 [ %5, %4 ], [ 0, %9 ], [ %21, %20 ], [ %49, %.thread61 ], [ %.2, %.loopexit ], [ %49, %76 ], [ %23, %.thread ], [ %49, %52 ], [ %49, %51 ], [ %49, %56 ], [ -2, %33 ], [ -2, %.lr.ph83 ]
  ret i32 %.052
}